Certificate:
    Data:
        Version: 3 (0x2)
        Serial Number:
            bf:27:e7:b1:38:9d:52:46:c5:f8:db:dc:39:74:1c:01
        Signature Algorithm: sha256WithRSAEncryption
        Issuer: CN=ChangeMe
        Validity
            Not Before: Oct 22 13:08:49 2020 GMT
            Not After : Jan 25 13:08:49 2023 GMT
        Subject: CN=server
        Subject Public Key Info:
            Public Key Algorithm: rsaEncryption
                RSA Public-Key: (2048 bit)
                Modulus:
                    00:de:4d:66:18:5c:8d:44:c2:6d:d7:37:3f:cb:c0:
                    56:f7:0c:98:16:17:fc:f3:ee:b3:6b:ae:22:9c:92:
                    c3:6a:92:ae:36:26:cf:49:cb:e6:f9:c7:21:fe:07:
                    76:18:06:9f:65:b2:36:c0:9d:84:b6:09:f3:77:0f:
                    2a:e6:be:bf:91:ff:6d:f7:89:03:c2:2c:60:94:25:
                    ba:4c:12:da:6b:fd:01:ff:4a:2c:5d:81:c3:ee:e0:
                    e9:37:d3:38:93:19:31:e9:dc:bd:c1:95:bb:98:9d:
                    91:71:ee:58:de:0d:9e:fa:23:26:0e:de:47:f0:5b:
                    f5:44:40:d6:89:28:3a:38:8f:7e:8c:ef:70:07:67:
                    94:e0:03:1e:6f:62:1b:5b:9c:9d:51:4f:49:c0:62:
                    ab:a5:84:b6:84:6d:fb:6d:cd:12:66:d4:ef:f7:dd:
                    44:17:c2:9f:67:c8:c7:a6:35:f3:b2:3e:c5:52:e8:
                    a6:bf:9e:c6:cc:5b:d4:41:70:7f:25:db:31:04:b9:
                    b2:4a:5d:fc:31:8f:c3:ff:a6:b8:89:e1:32:80:24:
                    8f:4f:5d:38:ad:dd:05:7e:ab:b6:8e:7a:cc:bd:48:
                    da:99:76:27:91:30:7c:27:bb:4c:7c:e3:f3:ff:f0:
                    b4:61:b6:a5:ae:99:04:e0:ac:d4:95:20:aa:ac:f3:
                    94:99
                Exponent: 65537 (0x10001)
        X509v3 extensions:
            X509v3 Basic Constraints: 
                CA:FALSE
            X509v3 Subject Key Identifier: 
                8F:C6:01:AB:63:F0:73:87:38:8F:1E:8A:F5:C9:98:D0:6D:FF:DC:A6
            X509v3 Authority Key Identifier: 
                keyid:15:A1:AF:E1:61:BE:F3:A9:B7:02:49:A2:94:CA:0C:93:21:C2:F6:4C
                DirName:/CN=ChangeMe
                serial:2B:4A:57:9E:FA:97:59:2D:28:39:7A:D7:37:53:B4:1F:BD:63:6B:AA

            X509v3 Extended Key Usage: 
                TLS Web Server Authentication
            X509v3 Key Usage: 
                Digital Signature, Key Encipherment
            X509v3 Subject Alternative Name: 
                DNS:server
    Signature Algorithm: sha256WithRSAEncryption
         a8:f4:65:fe:d2:7c:fe:5d:a1:ed:93:33:bd:2b:d5:78:03:c8:
         f5:b2:14:22:84:f7:ee:36:16:eb:db:61:82:18:a1:9a:0e:0a:
         fe:2f:49:99:36:c3:97:ed:9f:a7:72:41:a7:b5:15:e6:e7:6e:
         91:4b:4a:95:1e:97:3d:0b:a4:e9:06:13:0e:a7:87:7a:3a:fd:
         e7:7e:28:08:98:34:6e:0f:d3:c9:49:0d:59:59:1d:72:8b:dd:
         98:70:f8:0b:71:16:c9:ab:57:54:d1:72:10:45:dd:90:8a:8b:
         fb:44:21:f8:61:90:2b:3b:1a:b8:d4:48:29:e3:f9:2c:55:17:
         26:36:29:30:04:9b:01:e2:8a:b1:f5:2c:14:18:87:18:d4:23:
         81:51:36:12:3b:ab:86:7d:ec:85:1c:3e:73:79:d3:bf:40:95:
         8f:87:6c:b4:8c:74:c0:85:9c:49:b8:27:c6:8d:8a:c5:61:0a:
         ea:86:8a:ff:e0:c0:14:60:a4:22:d4:47:f0:c2:d0:b9:bc:04:
         f3:9f:34:d1:c0:e2:13:6e:a8:e6:b4:c0:5a:3a:57:39:d9:a6:
         fe:39:a8:56:c4:cb:56:17:c1:39:7b:65:b7:b3:71:a7:2d:22:
         0c:6a:f5:ff:2d:a9:b4:41:35:b3:61:b1:86:13:ca:f3:5a:7c:
         77:fd:5b:ce
-----BEGIN CERTIFICATE-----
MIIDYjCCAkqgAwIBAgIRAL8n57E4nVJGxfjb3Dl0HAEwDQYJKoZIhvcNAQELBQAw
EzERMA8GA1UEAwwIQ2hhbmdlTWUwHhcNMjAxMDIyMTMwODQ5WhcNMjMwMTI1MTMw
ODQ5WjARMQ8wDQYDVQQDDAZzZXJ2ZXIwggEiMA0GCSqGSIb3DQEBAQUAA4IBDwAw
ggEKAoIBAQDeTWYYXI1Ewm3XNz/LwFb3DJgWF/zz7rNrriKcksNqkq42Js9Jy+b5
xyH+B3YYBp9lsjbAnYS2CfN3Dyrmvr+R/233iQPCLGCUJbpMEtpr/QH/SixdgcPu
4Ok30ziTGTHp3L3BlbuYnZFx7ljeDZ76IyYO3kfwW/VEQNaJKDo4j36M73AHZ5Tg
Ax5vYhtbnJ1RT0nAYqulhLaEbfttzRJm1O/33UQXwp9nyMemNfOyPsVS6Ka/nsbM
W9RBcH8l2zEEubJKXfwxj8P/priJ4TKAJI9PXTit3QV+q7aOesy9SNqZdieRMHwn
u0x84/P/8LRhtqWumQTgrNSVIKqs85SZAgMBAAGjgbIwga8wCQYDVR0TBAIwADAd
BgNVHQ4EFgQUj8YBq2Pwc4c4jx6K9cmY0G3/3KYwTgYDVR0jBEcwRYAUFaGv4WG+
86m3AkmilMoMkyHC9kyhF6QVMBMxETAPBgNVBAMMCENoYW5nZU1lghQrSlee+pdZ
LSg5etc3U7QfvWNrqjATBgNVHSUEDDAKBggrBgEFBQcDATALBgNVHQ8EBAMCBaAw
EQYDVR0RBAowCIIGc2VydmVyMA0GCSqGSIb3DQEBCwUAA4IBAQCo9GX+0nz+XaHt
kzO9K9V4A8j1shQihPfuNhbr22GCGKGaDgr+L0mZNsOX7Z+nckGntRXm526RS0qV
Hpc9C6TpBhMOp4d6Ov3nfigImDRuD9PJSQ1ZWR1yi92YcPgLcRbJq1dU0XIQRd2Q
iov7RCH4YZArOxq41Egp4/ksVRcmNikwBJsB4oqx9SwUGIcY1COBUTYSO6uGfeyF
HD5zedO/QJWPh2y0jHTAhZxJuCfGjYrFYQrqhor/4MAUYKQi1EfwwtC5vATznzTR
wOITbqjmtMBaOlc52ab+OahWxMtWF8E5e2W3s3GnLSIMavX/Lam0QTWzYbGGE8rz
Wnx3/VvO
-----END CERTIFICATE-----
