Certificate:
    Data:
        Version: 3 (0x2)
        Serial Number:
            be:da:84:09:72:81:02:04:54:a1:90:12:3a:07:0b:f6
        Signature Algorithm: sha256WithRSAEncryption
        Issuer: CN=ChangeMe
        Validity
            Not Before: Oct 22 13:08:49 2020 GMT
            Not After : Jan 25 13:08:49 2023 GMT
        Subject: CN=client1.test.com
        Subject Public Key Info:
            Public Key Algorithm: rsaEncryption
                RSA Public-Key: (2048 bit)
                Modulus:
                    00:a7:e3:0b:0d:b3:8a:03:31:19:42:a3:8f:64:da:
                    10:ee:7f:e4:5b:0d:3f:0d:19:09:d7:83:60:34:16:
                    16:59:33:82:1c:4a:09:f6:7d:94:18:46:c9:3c:e1:
                    08:0b:dc:82:1c:cc:27:99:c4:09:3e:61:d9:bc:da:
                    fb:ae:95:29:cb:f5:eb:5e:06:e4:7c:37:46:8c:f5:
                    7e:cd:ab:ae:31:3a:2d:6f:5a:14:3a:3a:ed:a7:d8:
                    45:17:59:91:07:44:f0:8a:36:31:e3:2c:df:62:af:
                    ed:08:e3:be:b7:43:d0:47:08:d2:58:6f:7f:ed:22:
                    a0:61:3e:d8:e1:80:3a:87:f5:c3:3e:93:01:4f:a1:
                    da:01:19:40:65:ac:02:16:0a:c1:34:34:e9:aa:f6:
                    15:f6:dc:a4:81:f7:72:0a:a7:4c:2d:6d:f2:91:08:
                    cb:4c:b6:2c:63:3b:ad:82:10:3a:d9:7a:d6:43:30:
                    dd:82:05:b3:b2:9d:1a:1c:bd:a8:7d:77:f4:9f:4e:
                    99:e8:15:20:9e:a0:0e:a1:64:51:80:7c:e0:2f:9b:
                    39:d0:9c:64:46:8d:af:15:2a:d9:a5:ed:ce:d0:af:
                    12:79:d3:7b:2a:38:a0:fa:97:2e:f6:f9:63:16:8a:
                    1e:cf:4e:d1:f9:67:bc:90:a8:6e:c8:d5:4b:f7:6b:
                    e6:67
                Exponent: 65537 (0x10001)
        X509v3 extensions:
            X509v3 Basic Constraints: 
                CA:FALSE
            X509v3 Subject Key Identifier: 
                48:7D:33:32:C7:02:98:BF:04:E2:16:77:82:A8:E0:68:4B:03:7F:94
            X509v3 Authority Key Identifier: 
                keyid:15:A1:AF:E1:61:BE:F3:A9:B7:02:49:A2:94:CA:0C:93:21:C2:F6:4C
                DirName:/CN=ChangeMe
                serial:2B:4A:57:9E:FA:97:59:2D:28:39:7A:D7:37:53:B4:1F:BD:63:6B:AA

            X509v3 Extended Key Usage: 
                TLS Web Client Authentication
            X509v3 Key Usage: 
                Digital Signature
    Signature Algorithm: sha256WithRSAEncryption
         b0:ea:bd:f7:98:f4:cf:17:51:b9:45:d4:c4:d2:74:66:52:b0:
         72:79:6d:a7:c3:f3:bb:31:ca:42:62:07:bb:6d:62:ac:3f:92:
         ee:46:e6:e1:a3:9e:57:bf:4b:09:2b:03:59:48:a4:b9:3a:dc:
         57:57:da:fe:8b:8e:22:77:95:b4:3c:18:63:17:47:b9:84:4d:
         b1:1c:34:7e:d9:ca:18:37:63:8c:e1:89:3a:2a:73:12:26:23:
         15:65:05:92:dd:ab:0b:55:9c:da:ab:f6:70:cb:30:eb:fc:02:
         50:44:e2:96:fb:6c:52:87:24:c1:3a:e4:b5:92:e7:e7:3b:09:
         21:2e:2e:d2:22:45:ff:5e:0e:a6:79:8c:f5:2c:a2:7f:c9:ed:
         ef:48:a1:a4:1d:5a:15:f8:fe:a4:46:73:fc:83:ca:06:07:62:
         8c:9c:6e:ff:04:89:f5:f6:85:5c:c0:0c:b1:45:97:de:57:11:
         40:a5:b8:9a:72:53:e5:ee:be:c8:78:5c:54:bb:90:a7:20:65:
         a1:a6:32:b5:d9:ea:78:ef:00:7e:49:29:2a:54:c5:c9:08:35:
         28:ab:3c:3d:81:e9:11:1e:fa:b5:2b:ce:81:e9:1f:9e:3d:e3:
         39:61:f6:75:ba:50:cd:00:88:f4:23:5e:e9:ff:52:d8:a1:1e:
         24:a5:4f:1b
-----BEGIN CERTIFICATE-----
MIIDWTCCAkGgAwIBAgIRAL7ahAlygQIEVKGQEjoHC/YwDQYJKoZIhvcNAQELBQAw
EzERMA8GA1UEAwwIQ2hhbmdlTWUwHhcNMjAxMDIyMTMwODQ5WhcNMjMwMTI1MTMw
ODQ5WjAbMRkwFwYDVQQDDBBjbGllbnQxLnRlc3QuY29tMIIBIjANBgkqhkiG9w0B
AQEFAAOCAQ8AMIIBCgKCAQEAp+MLDbOKAzEZQqOPZNoQ7n/kWw0/DRkJ14NgNBYW
WTOCHEoJ9n2UGEbJPOEIC9yCHMwnmcQJPmHZvNr7rpUpy/XrXgbkfDdGjPV+zauu
MTotb1oUOjrtp9hFF1mRB0TwijYx4yzfYq/tCOO+t0PQRwjSWG9/7SKgYT7Y4YA6
h/XDPpMBT6HaARlAZawCFgrBNDTpqvYV9tykgfdyCqdMLW3ykQjLTLYsYzutghA6
2XrWQzDdggWzsp0aHL2ofXf0n06Z6BUgnqAOoWRRgHzgL5s50JxkRo2vFSrZpe3O
0K8SedN7Kjig+pcu9vljFooez07R+We8kKhuyNVL92vmZwIDAQABo4GfMIGcMAkG
A1UdEwQCMAAwHQYDVR0OBBYEFEh9MzLHApi/BOIWd4Ko4GhLA3+UME4GA1UdIwRH
MEWAFBWhr+FhvvOptwJJopTKDJMhwvZMoRekFTATMREwDwYDVQQDDAhDaGFuZ2VN
ZYIUK0pXnvqXWS0oOXrXN1O0H71ja6owEwYDVR0lBAwwCgYIKwYBBQUHAwIwCwYD
VR0PBAQDAgeAMA0GCSqGSIb3DQEBCwUAA4IBAQCw6r33mPTPF1G5RdTE0nRmUrBy
eW2nw/O7McpCYge7bWKsP5LuRubho55Xv0sJKwNZSKS5OtxXV9r+i44id5W0PBhj
F0e5hE2xHDR+2coYN2OM4Yk6KnMSJiMVZQWS3asLVZzaq/ZwyzDr/AJQROKW+2xS
hyTBOuS1kufnOwkhLi7SIkX/Xg6meYz1LKJ/ye3vSKGkHVoV+P6kRnP8g8oGB2KM
nG7/BIn19oVcwAyxRZfeVxFApbiaclPl7r7IeFxUu5CnIGWhpjK12ep47wB+SSkq
VMXJCDUoqzw9gekRHvq1K86B6R+ePeM5YfZ1ulDNAIj0I17p/1LYoR4kpU8b
-----END CERTIFICATE-----
